target datalayout = "e-m:e-p270:32:32-p271:32:32-p272:64:64-i64:64-i128:128-f80:128-n8:16:32:64-S128"
target triple = "x86_64-pc-linux-gnu"

%struct.ossl_param_st = type { ptr, i32, ptr, i64, i64 }

@.str.21 = private unnamed_addr constant [4 x i8] c"pub\00", align 1
@.str.22 = private unnamed_addr constant [5 x i8] c"priv\00", align 1
@.str.24 = private unnamed_addr constant [11 x i8] c"import %p\0A\00", align 1
@.str.25 = private unnamed_addr constant [18 x i8] c"import result %d\0A\00", align 1

; Function Attrs: inlinehint nounwind uwtable
define internal i32 @ossl_param_is_empty(ptr noundef %0) #3 {
  %2 = alloca ptr, align 8
  store ptr %0, ptr %2, align 8, !tbaa !7
  %3 = load ptr, ptr %2, align 8, !tbaa !7
  %4 = icmp eq ptr %3, null
  br i1 %4, label %10, label %5

5:                                                ; preds = %1
  %6 = load ptr, ptr %2, align 8, !tbaa !7
  %7 = getelementptr inbounds nuw %struct.ossl_param_st, ptr %6, i32 0, i32 0
  %8 = load ptr, ptr %7, align 8, !tbaa !20
  %9 = icmp eq ptr %8, null
  br label %10

10:                                               ; preds = %5, %1
  %11 = phi i1 [ true, %1 ], [ %9, %5 ]
  %12 = zext i1 %11 to i32
  ret i32 %12
}

; Function Attrs: nounwind uwtable
define internal i32 @ossl_template_key_fromdata(ptr noundef %0, ptr noundef %1, i32 noundef %2) #0 {
  %4 = alloca i32, align 4
  %5 = alloca ptr, align 8
  %6 = alloca ptr, align 8
  %7 = alloca i32, align 4
  %8 = alloca ptr, align 8
  %9 = alloca ptr, align 8
  %10 = alloca i32, align 4
  store ptr %0, ptr %5, align 8, !tbaa !3
  store ptr %1, ptr %6, align 8, !tbaa !7
  store i32 %2, ptr %7, align 4, !tbaa !9
  call void @llvm.lifetime.start.p0(i64 8, ptr %8) #4
  store ptr null, ptr %8, align 8, !tbaa !7
  call void @llvm.lifetime.start.p0(i64 8, ptr %9) #4
  %11 = load ptr, ptr %5, align 8, !tbaa !3
  %12 = icmp eq ptr %11, null
  br i1 %12, label %13, label %14

13:                                               ; preds = %3
  store i32 0, ptr %4, align 4
  store i32 1, ptr %10, align 4
  br label %43

14:                                               ; preds = %3
  %15 = load ptr, ptr %6, align 8, !tbaa !7
  %16 = call i32 @ossl_param_is_empty(ptr noundef %15)
  %17 = icmp ne i32 %16, 0
  br i1 %17, label %18, label %19

18:                                               ; preds = %14
  store i32 0, ptr %4, align 4
  store i32 1, ptr %10, align 4
  br label %43

19:                                               ; preds = %14
  %20 = load ptr, ptr %6, align 8, !tbaa !7
  %21 = call ptr @OSSL_PARAM_locate_const(ptr noundef %20, ptr noundef @.str.21)
  store ptr %21, ptr %9, align 8, !tbaa !7
  %22 = load i32, ptr %7, align 4, !tbaa !9
  %23 = icmp ne i32 %22, 0
  br i1 %23, label %24, label %27

24:                                               ; preds = %19
  %25 = load ptr, ptr %6, align 8, !tbaa !7
  %26 = call ptr @OSSL_PARAM_locate_const(ptr noundef %25, ptr noundef @.str.22)
  store ptr %26, ptr %8, align 8, !tbaa !7
  br label %27

27:                                               ; preds = %24, %19
  %28 = load ptr, ptr %9, align 8, !tbaa !7
  %29 = icmp eq ptr %28, null
  br i1 %29, label %30, label %34

30:                                               ; preds = %27
  %31 = load ptr, ptr %8, align 8, !tbaa !7
  %32 = icmp eq ptr %31, null
  br i1 %32, label %33, label %34

33:                                               ; preds = %30
  store i32 0, ptr %4, align 4
  store i32 1, ptr %10, align 4
  br label %43

34:                                               ; preds = %30, %27
  %35 = load ptr, ptr %8, align 8, !tbaa !7
  %36 = icmp ne ptr %35, null
  br i1 %36, label %37, label %38

37:                                               ; preds = %34
  br label %38

38:                                               ; preds = %37, %34
  %39 = load ptr, ptr %9, align 8, !tbaa !7
  %40 = icmp ne ptr %39, null
  br i1 %40, label %41, label %42

41:                                               ; preds = %38
  br label %42

42:                                               ; preds = %41, %38
  store i32 1, ptr %4, align 4
  store i32 1, ptr %10, align 4
  br label %43

43:                                               ; preds = %42, %33, %18, %13
  call void @llvm.lifetime.end.p0(i64 8, ptr %9) #4
  call void @llvm.lifetime.end.p0(i64 8, ptr %8) #4
  %44 = load i32, ptr %4, align 4
  ret i32 %44
}

; Function Attrs: nounwind uwtable
define internal void @debug_print(ptr noundef %0, ...) #0 {
  %2 = alloca ptr, align 8
  store ptr %0, ptr %2, align 8, !tbaa !18
  ret void
}

; Function Attrs: nounwind uwtable
define internal i32 @template_import(ptr noundef %0, i32 noundef %1, ptr noundef %2) #0 {
  %4 = alloca i32, align 4
  %5 = alloca ptr, align 8
  %6 = alloca i32, align 4
  %7 = alloca ptr, align 8
  %8 = alloca i32, align 4
  %9 = alloca i32, align 4
  %10 = alloca i32, align 4
  store ptr %0, ptr %5, align 8, !tbaa !3
  store i32 %1, ptr %6, align 4, !tbaa !9
  store ptr %2, ptr %7, align 8, !tbaa !7
  call void @llvm.lifetime.start.p0(i64 4, ptr %8) #4
  store i32 1, ptr %8, align 4, !tbaa !9
  call void @llvm.lifetime.start.p0(i64 4, ptr %9) #4
  %11 = load ptr, ptr %5, align 8, !tbaa !3
  call void (ptr, ...) @debug_print(ptr noundef @.str.24, ptr noundef %11)
  %12 = call i32 @ossl_prov_is_running()
  %13 = icmp ne i32 %12, 0
  br i1 %13, label %14, label %17

14:                                               ; preds = %3
  %15 = load ptr, ptr %5, align 8, !tbaa !3
  %16 = icmp eq ptr %15, null
  br i1 %16, label %17, label %18

17:                                               ; preds = %14, %3
  store i32 0, ptr %4, align 4
  store i32 1, ptr %10, align 4
  br label %41

18:                                               ; preds = %14
  %19 = load i32, ptr %6, align 4, !tbaa !9
  %20 = and i32 %19, 3
  %21 = icmp eq i32 %20, 0
  br i1 %21, label %22, label %23

22:                                               ; preds = %18
  store i32 0, ptr %4, align 4
  store i32 1, ptr %10, align 4
  br label %41

23:                                               ; preds = %18
  %24 = load i32, ptr %6, align 4, !tbaa !9
  %25 = and i32 %24, 1
  %26 = icmp ne i32 %25, 0
  %27 = select i1 %26, i32 1, i32 0
  store i32 %27, ptr %9, align 4, !tbaa !9
  %28 = load i32, ptr %8, align 4, !tbaa !9
  %29 = icmp ne i32 %28, 0
  br i1 %29, label %30, label %36

30:                                               ; preds = %23
  %31 = load ptr, ptr %5, align 8, !tbaa !3
  %32 = load ptr, ptr %7, align 8, !tbaa !7
  %33 = load i32, ptr %9, align 4, !tbaa !9
  %34 = call i32 @ossl_template_key_fromdata(ptr noundef %31, ptr noundef %32, i32 noundef %33)
  %35 = icmp ne i32 %34, 0
  br label %36

36:                                               ; preds = %30, %23
  %37 = phi i1 [ false, %23 ], [ %35, %30 ]
  %38 = zext i1 %37 to i32
  store i32 %38, ptr %8, align 4, !tbaa !9
  %39 = load i32, ptr %8, align 4, !tbaa !9
  call void (ptr, ...) @debug_print(ptr noundef @.str.25, i32 noundef %39)
  %40 = load i32, ptr %8, align 4, !tbaa !9
  store i32 %40, ptr %4, align 4
  store i32 1, ptr %10, align 4
  br label %41

41:                                               ; preds = %36, %22, %17
  call void @llvm.lifetime.end.p0(i64 4, ptr %9) #4
  call void @llvm.lifetime.end.p0(i64 4, ptr %8) #4
  %42 = load i32, ptr %4, align 4
  ret i32 %42
}