; Function Attrs: nounwind uwtable
define internal range(i32 0, 2) i32 @template_import(ptr noundef readnone captures(address_is_null) %0, i32 noundef %1, ptr noundef %2) #0 {
  %4 = tail call i32 @ossl_prov_is_running() #3
  %5 = icmp eq i32 %4, 0
  %6 = icmp eq ptr %0, null
  %or.cond = or i1 %6, %5
  %7 = and i32 %1, 3
  %8 = icmp eq i32 %7, 0
  %or.cond13 = or i1 %8, %or.cond
  br i1 %or.cond13, label %ossl_template_key_fromdata.exit, label %9

9:                                                ; preds = %3
  %10 = and i32 %1, 1
  %11 = icmp eq ptr %2, null
  br i1 %11, label %ossl_template_key_fromdata.exit, label %ossl_param_is_empty.exit.i

ossl_param_is_empty.exit.i:                       ; preds = %9
  %12 = load ptr, ptr %2, align 8, !tbaa !3
  %.not.i = icmp eq ptr %12, null
  br i1 %.not.i, label %ossl_template_key_fromdata.exit, label %13

13:                                               ; preds = %ossl_param_is_empty.exit.i
  %14 = tail call ptr @OSSL_PARAM_locate_const(ptr noundef nonnull %2, ptr noundef nonnull @.str.21) #3
  %.not11.i = icmp eq i32 %10, 0
  br i1 %.not11.i, label %18, label %15

15:                                               ; preds = %13
  %16 = tail call ptr @OSSL_PARAM_locate_const(ptr noundef nonnull %2, ptr noundef nonnull @.str.22) #3
  %17 = icmp eq ptr %16, null
  br label %18

18:                                               ; preds = %15, %13
  %.010.i = phi i1 [ %17, %15 ], [ true, %13 ]
  %19 = icmp eq ptr %14, null
  %or.cond.i = select i1 %19, i1 %.010.i, i1 false
  %not.or.cond.i = xor i1 %or.cond.i, true
  %..i = zext i1 %not.or.cond.i to i32
  br label %ossl_template_key_fromdata.exit

ossl_template_key_fromdata.exit:                  ; preds = %18, %ossl_param_is_empty.exit.i, %9, %3
  %.0 = phi i32 [ 0, %3 ], [ 0, %ossl_param_is_empty.exit.i ], [ %..i, %18 ], [ 0, %9 ]
  ret i32 %.0
}